	.file	"HelloWorld.c"
__SP_H__ = 0x3e
__SP_L__ = 0x3d
__SREG__ = 0x3f
__tmp_reg__ = 0
__zero_reg__ = 1
	.text
.Ltext0:
	.cfi_sections	.debug_frame
	.section	.text.main,"ax",@progbits
.global	main
	.type	main, @function
main:
.LFB6:
	.file 1 "D:\\GIBZ\\4.Semester\\M242\\prj\\helloworld\\Build\\HelloWorld.c"
	.loc 1 8 0
	.cfi_startproc
	push r16
.LCFI0:
	.cfi_def_cfa_offset 3
	.cfi_offset 16, -2
	push r17
.LCFI1:
	.cfi_def_cfa_offset 4
	.cfi_offset 17, -3
	push r28
.LCFI2:
	.cfi_def_cfa_offset 5
	.cfi_offset 28, -4
	push r29
.LCFI3:
	.cfi_def_cfa_offset 6
	.cfi_offset 29, -5
/* prologue: function */
/* frame size = 0 */
/* stack size = 4 */
.L__stack_usage = 4
	.loc 1 9 0
	call Usart_Init
.LVL0:
	ldi r28,lo8(10)
	ldi r29,0
	ldi r16,lo8(20)
	ldi r17,0
.LVL1:
.L2:
	.loc 1 15 0 discriminator 2
	mov r22,r28
	ldi r24,lo8(1)
	ldi r25,0
	call Usart_Trace1
.LVL2:
	.loc 1 16 0 discriminator 2
	mov r18,r16
	mov r20,r17
	mov r22,r28
	ldi r24,lo8(2)
	ldi r25,0
	call Usart_Trace3
.LVL3:
	.loc 1 17 0 discriminator 2
	mul r28,r28
	mov r18,r0
	clr r1
	mul r28,r28
	movw r24,r0
	mul r28,r29
	add r25,r0
	add r25,r0
	clr r1
	mov r20,r25
	mov r22,r28
	ldi r24,lo8(3)
	ldi r25,0
	call Usart_Trace3
.LVL4:
.LBB4:
.LBB5:
	.file 2 "d:\\gibz\\4.semester\\m242\\avr\\toolchain\\avr8-gnu-toolchain-win32_x86\\avr\\include\\util\\delay.h"
	.loc 2 187 0 discriminator 2
	ldi r25,lo8(199999)
	ldi r18,hi8(199999)
	ldi r24,hlo8(199999)
1:	subi r25,1
	sbci r18,0
	sbci r24,0
	brne 1b
	rjmp .
	nop
.LVL5:
	subi r16,-2
	sbci r17,-1
	adiw r28,1
.LVL6:
.LBE5:
.LBE4:
	.loc 1 13 0 discriminator 2
	cpi r28,20
	cpc r29,__zero_reg__
	brne .L2
	.loc 1 21 0
	ldi r24,0
	ldi r25,0
/* epilogue start */
	pop r29
	pop r28
.LVL7:
	pop r17
	pop r16
	ret
	.cfi_endproc
.LFE6:
	.size	main, .-main
	.text
.Letext0:
	.file 3 "d:\\gibz\\4.semester\\m242\\avr\\toolchain\\avr8-gnu-toolchain-win32_x86\\avr\\include\\stdint.h"
	.file 4 "D:\\GIBZ\\4.Semester\\M242\\avr\\ToolChain\\AvrLib\\include/avrlib.h"